target datalayout = "e-m:e-p270:32:32-p271:32:32-p272:64:64-i64:64-i128:128-f80:128-n8:16:32:64-S128"
target triple = "x86_64-pc-linux-gnu"

@hf_ieee80211_s1g_page_slice_page_period = internal global i32 0, align 4
@hf_ieee80211_s1g_page_slice_control = internal global i32 0, align 4
@hf_ieee80211_s1g_page_slice_page_bitmap = internal global i32 0, align 4
@ett_s1g_page_slice_control = internal global i32 0, align 4

; Function Attrs: null_pointer_is_valid sspstrong uwtable
define internal i32 @dissect_page_slice(ptr noundef %0, ptr noundef %1, ptr noundef %2, ptr noundef %3) #1 {
  %5 = alloca ptr, align 8
  %6 = alloca ptr, align 8
  %7 = alloca ptr, align 8
  %8 = alloca ptr, align 8
  %9 = alloca i32, align 4
  %10 = alloca i32, align 4
  store ptr %0, ptr %5, align 8
  store ptr %1, ptr %6, align 8
  store ptr %2, ptr %7, align 8
  store ptr %3, ptr %8, align 8
  call void @llvm.lifetime.start.p0(i64 4, ptr %9) #19
  store i32 0, ptr %9, align 4
  call void @llvm.lifetime.start.p0(i64 4, ptr %10) #19
  store i32 0, ptr %10, align 4
  %11 = load ptr, ptr %7, align 8
  %12 = load i32, ptr @hf_ieee80211_s1g_page_slice_page_period, align 4
  %13 = load ptr, ptr %5, align 8
  %14 = load i32, ptr %9, align 4
  %15 = call ptr @proto_tree_add_item(ptr noundef %11, i32 noundef %12, ptr noundef %13, i32 noundef %14, i32 noundef 1, i32 noundef 0)
  %16 = load i32, ptr %9, align 4
  %17 = add i32 %16, 1
  store i32 %17, ptr %9, align 4
  %18 = load ptr, ptr %7, align 8
  %19 = load ptr, ptr %5, align 8
  %20 = load i32, ptr %9, align 4
  %21 = load i32, ptr @hf_ieee80211_s1g_page_slice_control, align 4
  %22 = load i32, ptr @ett_s1g_page_slice_control, align 4
  %23 = call ptr @proto_tree_add_bitmask_with_flags(ptr noundef %18, ptr noundef %19, i32 noundef %20, i32 noundef %21, i32 noundef %22, ptr noundef @s1g_page_slice_headers, i32 noundef -2147483648, i32 noundef 1)
  %24 = load i32, ptr %9, align 4
  %25 = add i32 %24, 3
  store i32 %25, ptr %9, align 4
  %26 = load ptr, ptr %5, align 8
  %27 = load i32, ptr %9, align 4
  %28 = call i32 @tvb_reported_length_remaining(ptr noundef %26, i32 noundef %27)
  store i32 %28, ptr %10, align 4
  %29 = load i32, ptr %10, align 4
  %30 = icmp sgt i32 %29, 0
  br i1 %30, label %31, label %41

31:                                               ; preds = %4
  %32 = load ptr, ptr %7, align 8
  %33 = load i32, ptr @hf_ieee80211_s1g_page_slice_page_bitmap, align 4
  %34 = load ptr, ptr %5, align 8
  %35 = load i32, ptr %9, align 4
  %36 = load i32, ptr %10, align 4
  %37 = call ptr @proto_tree_add_item(ptr noundef %32, i32 noundef %33, ptr noundef %34, i32 noundef %35, i32 noundef %36, i32 noundef 0)
  %38 = load i32, ptr %10, align 4
  %39 = load i32, ptr %9, align 4
  %40 = add i32 %39, %38
  store i32 %40, ptr %9, align 4
  br label %41

41:                                               ; preds = %31, %4
  %42 = load i32, ptr %9, align 4
  call void @llvm.lifetime.end.p0(i64 4, ptr %10) #19
  call void @llvm.lifetime.end.p0(i64 4, ptr %9) #19
  ret i32 %42
}