; Function Attrs: null_pointer_is_valid sspstrong uwtable
define internal range(i32 4, -2147483644) i32 @dissect_page_slice(ptr noundef %0, ptr readnone captures(none) %1, ptr noundef %2, ptr readnone captures(none) %3) #2 {
  %5 = load i32, ptr @hf_ieee80211_s1g_page_slice_page_period, align 4
  %6 = tail call ptr @proto_tree_add_item(ptr noundef %2, i32 noundef %5, ptr noundef %0, i32 noundef 0, i32 noundef 1, i32 noundef 0)
  %7 = load i32, ptr @hf_ieee80211_s1g_page_slice_control, align 4
  %8 = load i32, ptr @ett_s1g_page_slice_control, align 4
  %9 = tail call ptr @proto_tree_add_bitmask_with_flags(ptr noundef %2, ptr noundef %0, i32 noundef 1, i32 noundef %7, i32 noundef %8, ptr noundef nonnull @s1g_page_slice_headers, i32 noundef -2147483648, i32 noundef 1)
  %10 = tail call i32 @tvb_reported_length_remaining(ptr noundef %0, i32 noundef 4)
  %11 = icmp sgt i32 %10, 0
  br i1 %11, label %12, label %16

12:                                               ; preds = %4
  %13 = load i32, ptr @hf_ieee80211_s1g_page_slice_page_bitmap, align 4
  %14 = tail call ptr @proto_tree_add_item(ptr noundef %2, i32 noundef %13, ptr noundef %0, i32 noundef 4, i32 noundef %10, i32 noundef 0)
  %15 = add nuw i32 %10, 4
  br label %16

16:                                               ; preds = %12, %4
  %.0 = phi i32 [ %15, %12 ], [ 4, %4 ]
  ret i32 %.0
}